target datalayout = "e-m:e-p270:32:32-p271:32:32-p272:64:64-i64:64-i128:128-f80:128-n8:16:32:64-S128"
target triple = "x86_64-pc-linux-gnu"

%struct.pmix_object_t = type { %union.pthread_mutex_t, ptr, i32, %struct.pmix_tma }
%struct.pmix_tma = type { ptr, ptr, ptr, ptr, ptr, ptr, ptr, ptr }
%union.pthread_mutex_t = type { %struct.__pthread_mutex_s }
%struct.__pthread_mutex_s = type { i32, i32, i32, i32, i32, i16, i16, %struct.__pthread_internal_list }
%struct.__pthread_internal_list = type { ptr, ptr }
%struct.pmix_proc = type { [256 x i8], i32 }
%struct.timeval = type { i64, i64 }
%struct.pmix_list_item_t = type { %struct.pmix_object_t, ptr, ptr, i32 }
%struct.event = type { %struct.event_callback, %union.anon.2, i32, ptr, %union.anon.4, i16, i16, %struct.timeval }
%struct.event_callback = type { %struct.anon.0, i16, i8, i8, %union.anon.1, ptr }
%struct.anon.0 = type { ptr, ptr }
%union.anon.1 = type { ptr }
%union.anon.2 = type { %struct.anon.3 }
%struct.anon.3 = type { ptr, ptr }
%union.anon.4 = type { %struct.anon.5 }
%struct.anon.5 = type { %struct.anon.6, %struct.timeval }
%struct.anon.6 = type { ptr, ptr }
%struct.pmix_event_chain_t = type { %struct.pmix_list_item_t, i32, %struct.event, i8, i8, i8, i8, %struct.pmix_proc, i8, ptr, i64, ptr, i64, ptr, i64, i64, i32, ptr, i64, ptr, i64, ptr, ptr, ptr, ptr, ptr }

; Function Attrs: nounwind uwtable
define internal void @chdes(ptr noundef %0) #0 {
  %2 = alloca ptr, align 8
  store ptr %0, ptr %2, align 8, !tbaa !86
  %3 = load ptr, ptr %2, align 8, !tbaa !86
  %4 = getelementptr inbounds nuw %struct.pmix_event_chain_t, ptr %3, i32 0, i32 3
  %5 = load i8, ptr %4, align 8, !tbaa !258, !range !23, !noundef !24
  %6 = trunc i8 %5 to i1
  br i1 %6, label %7, label %11

7:                                                ; preds = %1
  %8 = load ptr, ptr %2, align 8, !tbaa !86
  %9 = getelementptr inbounds nuw %struct.pmix_event_chain_t, ptr %8, i32 0, i32 2
  %10 = call i32 @event_del(ptr noundef %9)
  br label %11

11:                                               ; preds = %7, %1
  %12 = load ptr, ptr %2, align 8, !tbaa !86
  %13 = getelementptr inbounds nuw %struct.pmix_event_chain_t, ptr %12, i32 0, i32 9
  %14 = load ptr, ptr %13, align 8, !tbaa !116
  %15 = icmp ne ptr null, %14
  br i1 %15, label %16, label %27

16:                                               ; preds = %11
  br label %17

17:                                               ; preds = %16
  %18 = load ptr, ptr %2, align 8, !tbaa !86
  %19 = getelementptr inbounds nuw %struct.pmix_event_chain_t, ptr %18, i32 0, i32 9
  %20 = load ptr, ptr %19, align 8, !tbaa !116
  %21 = load ptr, ptr %2, align 8, !tbaa !86
  %22 = getelementptr inbounds nuw %struct.pmix_event_chain_t, ptr %21, i32 0, i32 10
  %23 = load i64, ptr %22, align 8, !tbaa !117
  call void @PMIx_Proc_free(ptr noundef %20, i64 noundef %23)
  %24 = load ptr, ptr %2, align 8, !tbaa !86
  %25 = getelementptr inbounds nuw %struct.pmix_event_chain_t, ptr %24, i32 0, i32 9
  store ptr null, ptr %25, align 8, !tbaa !116
  br label %26

26:                                               ; preds = %17
  br label %27

27:                                               ; preds = %26, %11
  %28 = load ptr, ptr %2, align 8, !tbaa !86
  %29 = getelementptr inbounds nuw %struct.pmix_event_chain_t, ptr %28, i32 0, i32 11
  %30 = load ptr, ptr %29, align 8, !tbaa !120
  %31 = icmp ne ptr null, %30
  br i1 %31, label %32, label %43

32:                                               ; preds = %27
  br label %33

33:                                               ; preds = %32
  %34 = load ptr, ptr %2, align 8, !tbaa !86
  %35 = getelementptr inbounds nuw %struct.pmix_event_chain_t, ptr %34, i32 0, i32 11
  %36 = load ptr, ptr %35, align 8, !tbaa !120
  %37 = load ptr, ptr %2, align 8, !tbaa !86
  %38 = getelementptr inbounds nuw %struct.pmix_event_chain_t, ptr %37, i32 0, i32 12
  %39 = load i64, ptr %38, align 8, !tbaa !121
  call void @PMIx_Proc_free(ptr noundef %36, i64 noundef %39)
  %40 = load ptr, ptr %2, align 8, !tbaa !86
  %41 = getelementptr inbounds nuw %struct.pmix_event_chain_t, ptr %40, i32 0, i32 11
  store ptr null, ptr %41, align 8, !tbaa !120
  br label %42

42:                                               ; preds = %33
  br label %43

43:                                               ; preds = %42, %27
  %44 = load ptr, ptr %2, align 8, !tbaa !86
  %45 = getelementptr inbounds nuw %struct.pmix_event_chain_t, ptr %44, i32 0, i32 13
  %46 = load ptr, ptr %45, align 8, !tbaa !110
  %47 = icmp ne ptr null, %46
  br i1 %47, label %48, label %59

48:                                               ; preds = %43
  br label %49

49:                                               ; preds = %48
  %50 = load ptr, ptr %2, align 8, !tbaa !86
  %51 = getelementptr inbounds nuw %struct.pmix_event_chain_t, ptr %50, i32 0, i32 13
  %52 = load ptr, ptr %51, align 8, !tbaa !110
  %53 = load ptr, ptr %2, align 8, !tbaa !86
  %54 = getelementptr inbounds nuw %struct.pmix_event_chain_t, ptr %53, i32 0, i32 15
  %55 = load i64, ptr %54, align 8, !tbaa !109
  call void @PMIx_Info_free(ptr noundef %52, i64 noundef %55)
  %56 = load ptr, ptr %2, align 8, !tbaa !86
  %57 = getelementptr inbounds nuw %struct.pmix_event_chain_t, ptr %56, i32 0, i32 13
  store ptr null, ptr %57, align 8, !tbaa !110
  br label %58

58:                                               ; preds = %49
  br label %59

59:                                               ; preds = %58, %43
  %60 = load ptr, ptr %2, align 8, !tbaa !86
  %61 = getelementptr inbounds nuw %struct.pmix_event_chain_t, ptr %60, i32 0, i32 17
  %62 = load ptr, ptr %61, align 8, !tbaa !278
  %63 = icmp ne ptr null, %62
  br i1 %63, label %64, label %75

64:                                               ; preds = %59
  br label %65

65:                                               ; preds = %64
  %66 = load ptr, ptr %2, align 8, !tbaa !86
  %67 = getelementptr inbounds nuw %struct.pmix_event_chain_t, ptr %66, i32 0, i32 17
  %68 = load ptr, ptr %67, align 8, !tbaa !278
  %69 = load ptr, ptr %2, align 8, !tbaa !86
  %70 = getelementptr inbounds nuw %struct.pmix_event_chain_t, ptr %69, i32 0, i32 18
  %71 = load i64, ptr %70, align 8, !tbaa !279
  call void @PMIx_Info_free(ptr noundef %68, i64 noundef %71)
  %72 = load ptr, ptr %2, align 8, !tbaa !86
  %73 = getelementptr inbounds nuw %struct.pmix_event_chain_t, ptr %72, i32 0, i32 17
  store ptr null, ptr %73, align 8, !tbaa !278
  br label %74

74:                                               ; preds = %65
  br label %75

75:                                               ; preds = %74, %59
  ret void
}