; Function Attrs: nounwind uwtable
define internal void @chdes(ptr noundef %0) #0 {
  %2 = getelementptr inbounds nuw i8, ptr %0, i64 280
  %3 = load i8, ptr %2, align 8, !tbaa !229, !range !14, !noundef !15
  %4 = trunc nuw i8 %3 to i1
  br i1 %4, label %5, label %8

5:                                                ; preds = %1
  %6 = getelementptr inbounds nuw i8, ptr %0, i64 152
  %7 = tail call i32 @event_del(ptr noundef nonnull %6) #15
  br label %8

8:                                                ; preds = %5, %1
  %9 = getelementptr inbounds nuw i8, ptr %0, i64 552
  %10 = load ptr, ptr %9, align 8, !tbaa !116
  %.not = icmp eq ptr %10, null
  br i1 %.not, label %14, label %11

11:                                               ; preds = %8
  %12 = getelementptr inbounds nuw i8, ptr %0, i64 560
  %13 = load i64, ptr %12, align 8, !tbaa !117
  tail call void @PMIx_Proc_free(ptr noundef nonnull %10, i64 noundef %13) #15
  store ptr null, ptr %9, align 8, !tbaa !116
  br label %14

14:                                               ; preds = %11, %8
  %15 = getelementptr inbounds nuw i8, ptr %0, i64 568
  %16 = load ptr, ptr %15, align 8, !tbaa !120
  %.not21 = icmp eq ptr %16, null
  br i1 %.not21, label %20, label %17

17:                                               ; preds = %14
  %18 = getelementptr inbounds nuw i8, ptr %0, i64 576
  %19 = load i64, ptr %18, align 8, !tbaa !121
  tail call void @PMIx_Proc_free(ptr noundef nonnull %16, i64 noundef %19) #15
  store ptr null, ptr %15, align 8, !tbaa !120
  br label %20

20:                                               ; preds = %17, %14
  %21 = getelementptr inbounds nuw i8, ptr %0, i64 584
  %22 = load ptr, ptr %21, align 8, !tbaa !110
  %.not22 = icmp eq ptr %22, null
  br i1 %.not22, label %26, label %23

23:                                               ; preds = %20
  %24 = getelementptr inbounds nuw i8, ptr %0, i64 600
  %25 = load i64, ptr %24, align 8, !tbaa !109
  tail call void @PMIx_Info_free(ptr noundef nonnull %22, i64 noundef %25) #15
  store ptr null, ptr %21, align 8, !tbaa !110
  br label %26

26:                                               ; preds = %23, %20
  %27 = getelementptr inbounds nuw i8, ptr %0, i64 616
  %28 = load ptr, ptr %27, align 8, !tbaa !243
  %.not23 = icmp eq ptr %28, null
  br i1 %.not23, label %32, label %29

29:                                               ; preds = %26
  %30 = getelementptr inbounds nuw i8, ptr %0, i64 624
  %31 = load i64, ptr %30, align 8, !tbaa !244
  tail call void @PMIx_Info_free(ptr noundef nonnull %28, i64 noundef %31) #15
  store ptr null, ptr %27, align 8, !tbaa !243
  br label %32

32:                                               ; preds = %29, %26
  ret void
}